target datalayout = "e-m:e-p270:32:32-p271:32:32-p272:64:64-i64:64-i128:128-f80:128-n8:16:32:64-S128"
target triple = "x86_64-pc-linux-gnu"

@.str.76 = private unnamed_addr constant [14 x i8] c"GeographicCRS\00", align 1

; Function Attrs: mustprogress uwtable
define hidden void @_ZNK5osgeo4proj3crs13GeographicCRS13_exportToJSONEPNS0_2io13JSONFormatterE(ptr noundef nonnull align 8 dereferenceable(24) %0, ptr noundef %1) unnamed_addr #7 align 2 {
  %3 = alloca ptr, align 8
  %4 = alloca ptr, align 8
  store ptr %0, ptr %3, align 8
  store ptr %1, ptr %4, align 8
  %5 = load ptr, ptr %3, align 8
  %6 = load ptr, ptr %4, align 8
  call void @_ZNK5osgeo4proj3crs11GeodeticCRS21_exportToJSONInternalEPNS0_2io13JSONFormatterEPKc(ptr noundef nonnull align 8 dereferenceable(16) %5, ptr noundef %6, ptr noundef @.str.76)
  ret void
}

; Function Attrs: uwtable
define hidden void @_ZTvn48_n72_NK5osgeo4proj3crs13GeographicCRS13_exportToJSONEPNS0_2io13JSONFormatterE(ptr noundef %0, ptr noundef %1) unnamed_addr #0 align 2 {
  %3 = alloca ptr, align 8
  %4 = alloca ptr, align 8
  store ptr %0, ptr %3, align 8
  store ptr %1, ptr %4, align 8
  %5 = load ptr, ptr %3, align 8
  %6 = getelementptr inbounds i8, ptr %5, i64 -48
  %7 = load ptr, ptr %6, align 8
  %8 = getelementptr inbounds i8, ptr %7, i64 -72
  %9 = load i64, ptr %8, align 8
  %10 = getelementptr inbounds i8, ptr %6, i64 %9
  %11 = load ptr, ptr %4, align 8
  tail call void @_ZNK5osgeo4proj3crs13GeographicCRS13_exportToJSONEPNS0_2io13JSONFormatterE(ptr noundef nonnull align 8 dereferenceable(24) %10, ptr noundef %11)
  ret void
}